target datalayout = "e-m:e-p270:32:32-p271:32:32-p272:64:64-i64:64-i128:128-f80:128-n8:16:32:64-S128"
target triple = "x86_64-pc-linux-gnu"

@.str = private unnamed_addr constant [64 x i8] c"../openssl/providers/implementations/ciphers/cipher_tdes_wrap.c\00", align 1
@__func__.tdes_wrap_update = private unnamed_addr constant [17 x i8] c"tdes_wrap_update\00", align 1

; Function Attrs: nounwind uwtable
define internal i32 @tdes_wrap_update(ptr noundef %0, ptr noundef %1, ptr noundef %2, i64 noundef %3, ptr noundef %4, i64 noundef %5) #1 {
  %7 = alloca i32, align 4
  %8 = alloca ptr, align 8
  %9 = alloca ptr, align 8
  %10 = alloca ptr, align 8
  %11 = alloca i64, align 8
  %12 = alloca ptr, align 8
  %13 = alloca i64, align 8
  store ptr %0, ptr %8, align 8, !tbaa !3
  store ptr %1, ptr %9, align 8, !tbaa !7
  store ptr %2, ptr %10, align 8, !tbaa !9
  store i64 %3, ptr %11, align 8, !tbaa !11
  store ptr %4, ptr %12, align 8, !tbaa !7
  store i64 %5, ptr %13, align 8, !tbaa !11
  %14 = load ptr, ptr %10, align 8, !tbaa !9
  store i64 0, ptr %14, align 8, !tbaa !11
  %15 = load i64, ptr %13, align 8, !tbaa !11
  %16 = icmp eq i64 %15, 0
  br i1 %16, label %17, label %18

17:                                               ; preds = %6
  store i32 1, ptr %7, align 4
  br label %34

18:                                               ; preds = %6
  %19 = load i64, ptr %11, align 8, !tbaa !11
  %20 = load i64, ptr %13, align 8, !tbaa !11
  %21 = icmp ult i64 %19, %20
  br i1 %21, label %22, label %23

22:                                               ; preds = %18
  call void @ERR_new()
  call void @ERR_set_debug(ptr noundef @.str, i32 noundef 158, ptr noundef @__func__.tdes_wrap_update)
  call void (i32, i32, ptr, ...) @ERR_set_error(i32 noundef 57, i32 noundef 106, ptr noundef null)
  store i32 0, ptr %7, align 4
  br label %34

23:                                               ; preds = %18
  %24 = load ptr, ptr %8, align 8, !tbaa !3
  %25 = load ptr, ptr %9, align 8, !tbaa !7
  %26 = load ptr, ptr %10, align 8, !tbaa !9
  %27 = load i64, ptr %11, align 8, !tbaa !11
  %28 = load ptr, ptr %12, align 8, !tbaa !7
  %29 = load i64, ptr %13, align 8, !tbaa !11
  %30 = call i32 @tdes_wrap_cipher(ptr noundef %24, ptr noundef %25, ptr noundef %26, i64 noundef %27, ptr noundef %28, i64 noundef %29)
  %31 = icmp ne i32 %30, 0
  br i1 %31, label %33, label %32

32:                                               ; preds = %23
  call void @ERR_new()
  call void @ERR_set_debug(ptr noundef @.str, i32 noundef 163, ptr noundef @__func__.tdes_wrap_update)
  call void (i32, i32, ptr, ...) @ERR_set_error(i32 noundef 57, i32 noundef 102, ptr noundef null)
  store i32 0, ptr %7, align 4
  br label %34

33:                                               ; preds = %23
  store i32 1, ptr %7, align 4
  br label %34

34:                                               ; preds = %33, %32, %22, %17
  %35 = load i32, ptr %7, align 4
  ret i32 %35
}