; Function Attrs: nounwind uwtable
define internal range(i32 0, 2) i32 @tdes_wrap_update(ptr noundef %0, ptr noundef %1, ptr noundef writeonly captures(none) initializes((0, 8)) %2, i64 noundef %3, ptr noundef %4, i64 noundef %5) #1 {
  store i64 0, ptr %2, align 8, !tbaa !3
  %7 = icmp eq i64 %5, 0
  br i1 %7, label %12, label %8

8:                                                ; preds = %6
  %9 = icmp ult i64 %3, %5
  br i1 %9, label %.sink.split, label %10

10:                                               ; preds = %8
  %11 = tail call i32 @tdes_wrap_cipher(ptr noundef %0, ptr noundef %1, ptr noundef nonnull %2, i64 noundef %3, ptr noundef %4, i64 noundef %5)
  %.not = icmp eq i32 %11, 0
  br i1 %.not, label %.sink.split, label %12

.sink.split:                                      ; preds = %10, %8
  %.sink12 = phi i32 [ 158, %8 ], [ 163, %10 ]
  %.sink = phi i32 [ 106, %8 ], [ 102, %10 ]
  tail call void @ERR_new() #4
  tail call void @ERR_set_debug(ptr noundef nonnull @.str, i32 noundef %.sink12, ptr noundef nonnull @__func__.tdes_wrap_update) #4
  tail call void (i32, i32, ptr, ...) @ERR_set_error(i32 noundef 57, i32 noundef %.sink, ptr noundef null) #4
  br label %12

12:                                               ; preds = %.sink.split, %10, %6
  %.0 = phi i32 [ 1, %6 ], [ 1, %10 ], [ 0, %.sink.split ]
  ret i32 %.0
}